target datalayout = "e-m:e-p270:32:32-p271:32:32-p272:64:64-i64:64-i128:128-f80:128-n8:16:32:64-S128"
target triple = "x86_64-pc-linux-gnu"

%union.pthread_mutex_t = type { %struct.__pthread_mutex_s }
%struct.__pthread_mutex_s = type { i32, i32, i32, i32, i32, i16, i16, %struct.__pthread_internal_list }
%struct.__pthread_internal_list = type { ptr, ptr }
%union.pthread_cond_t = type { %struct.__pthread_cond_s }
%struct.__pthread_cond_s = type { %union.__atomic_wide_counter, %union.__atomic_wide_counter, [2 x i32], [2 x i32], i32, i32, [2 x i32] }
%union.__atomic_wide_counter = type { i64 }
%struct.timespec = type { i64, i64 }

@agent_thread_cnt = internal global i32 0, align 4
@agent_cnt_mutex = internal global %union.pthread_mutex_t zeroinitializer, align 8
@.str.3 = private unnamed_addr constant [29 x i8] c"%s: pthread_mutex_lock(): %m\00", align 1
@agent_cnt_cond = internal global %union.pthread_cond_t zeroinitializer, align 8
@.str.6 = private unnamed_addr constant [8 x i8] c"agent.c\00", align 1
@.str.7 = private unnamed_addr constant [31 x i8] c"%s: pthread_mutex_unlock(): %m\00", align 1
@.str.14 = private unnamed_addr constant [23 x i8] c"%s: pthread_join(): %m\00", align 1
@.str.19 = private unnamed_addr constant [39 x i8] c"%s:%d %s: pthread_cond_broadcast(): %m\00", align 1
@pending_thread_tid = internal global i64 0, align 8
@update_srun_list = internal global ptr null, align 8
@nodes_update_tid = internal global i64 0, align 8
@srun_update_tid = internal global i64 0, align 8
@update_nodes_mutex = internal global %union.pthread_mutex_t zeroinitializer, align 8
@__func__.agent_fini = private unnamed_addr constant [11 x i8] c"agent_fini\00", align 1
@update_nodes_cond = internal global %union.pthread_cond_t zeroinitializer, align 8
@update_srun_mutex = internal global %union.pthread_mutex_t zeroinitializer, align 8
@update_srun_cond = internal global %union.pthread_cond_t zeroinitializer, align 8
@.str.21 = private unnamed_addr constant [33 x i8] c"%s: left %d agent threads active\00", align 1

; Function Attrs: nounwind uwtable
define dso_local void @agent_fini() #0 {
  %1 = alloca %struct.timespec, align 8
  %2 = alloca i32, align 4
  %3 = alloca i32, align 4
  %4 = alloca i32, align 4
  %5 = alloca i32, align 4
  %6 = alloca i32, align 4
  %7 = alloca i32, align 4
  %8 = alloca i32, align 4
  %9 = alloca i32, align 4
  %10 = alloca i32, align 4
  %11 = alloca i32, align 4
  %12 = alloca i32, align 4
  %13 = alloca i32, align 4
  %14 = alloca i32, align 4
  call void @llvm.lifetime.start.p0(i64 16, ptr %1) #10
  call void @llvm.memset.p0.i64(ptr align 8 %1, i8 0, i64 16, i1 false)
  call void @llvm.lifetime.start.p0(i64 4, ptr %2) #10
  store i32 0, ptr %2, align 4
  call void @agent_trigger(i32 noundef 999, i1 noundef zeroext true, i1 noundef zeroext true)
  br label %15

15:                                               ; preds = %0
  call void @llvm.lifetime.start.p0(i64 4, ptr %3) #10
  %16 = call i32 @pthread_mutex_lock(ptr noundef @update_nodes_mutex) #10
  store i32 %16, ptr %3, align 4
  %17 = load i32, ptr %3, align 4
  %18 = icmp ne i32 %17, 0
  br i1 %18, label %19, label %22

19:                                               ; preds = %15
  %20 = load i32, ptr %3, align 4
  %21 = call ptr @__errno_location() #11
  store i32 %20, ptr %21, align 4
  call void (ptr, ...) @fatal_abort(ptr noundef @.str.3, ptr noundef @__func__.agent_fini) #12
  unreachable

22:                                               ; preds = %15
  call void @llvm.lifetime.end.p0(i64 4, ptr %3) #10
  br label %23

23:                                               ; preds = %22
  br label %24

24:                                               ; preds = %23
  br label %25

25:                                               ; preds = %24
  call void @llvm.lifetime.start.p0(i64 4, ptr %4) #10
  %26 = call i32 @pthread_cond_broadcast(ptr noundef @update_nodes_cond) #10
  store i32 %26, ptr %4, align 4
  %27 = load i32, ptr %4, align 4
  %28 = icmp ne i32 %27, 0
  br i1 %28, label %29, label %33

29:                                               ; preds = %25
  %30 = load i32, ptr %4, align 4
  %31 = call ptr @__errno_location() #11
  store i32 %30, ptr %31, align 4
  %32 = call i32 (ptr, ...) @error(ptr noundef @.str.19, ptr noundef @.str.6, i32 noundef 1628, ptr noundef @__func__.agent_fini)
  br label %33

33:                                               ; preds = %29, %25
  call void @llvm.lifetime.end.p0(i64 4, ptr %4) #10
  br label %34

34:                                               ; preds = %33
  br label %35

35:                                               ; preds = %34
  br label %36

36:                                               ; preds = %35
  call void @llvm.lifetime.start.p0(i64 4, ptr %5) #10
  %37 = call i32 @pthread_mutex_unlock(ptr noundef @update_nodes_mutex) #10
  store i32 %37, ptr %5, align 4
  %38 = load i32, ptr %5, align 4
  %39 = icmp ne i32 %38, 0
  br i1 %39, label %40, label %43

40:                                               ; preds = %36
  %41 = load i32, ptr %5, align 4
  %42 = call ptr @__errno_location() #11
  store i32 %41, ptr %42, align 4
  call void (ptr, ...) @fatal_abort(ptr noundef @.str.7, ptr noundef @__func__.agent_fini) #12
  unreachable

43:                                               ; preds = %36
  call void @llvm.lifetime.end.p0(i64 4, ptr %5) #10
  br label %44

44:                                               ; preds = %43
  br label %45

45:                                               ; preds = %44
  br label %46

46:                                               ; preds = %45
  call void @llvm.lifetime.start.p0(i64 4, ptr %6) #10
  %47 = call i32 @pthread_mutex_lock(ptr noundef @update_srun_mutex) #10
  store i32 %47, ptr %6, align 4
  %48 = load i32, ptr %6, align 4
  %49 = icmp ne i32 %48, 0
  br i1 %49, label %50, label %53

50:                                               ; preds = %46
  %51 = load i32, ptr %6, align 4
  %52 = call ptr @__errno_location() #11
  store i32 %51, ptr %52, align 4
  call void (ptr, ...) @fatal_abort(ptr noundef @.str.3, ptr noundef @__func__.agent_fini) #12
  unreachable

53:                                               ; preds = %46
  call void @llvm.lifetime.end.p0(i64 4, ptr %6) #10
  br label %54

54:                                               ; preds = %53
  br label %55

55:                                               ; preds = %54
  br label %56

56:                                               ; preds = %55
  call void @llvm.lifetime.start.p0(i64 4, ptr %7) #10
  %57 = call i32 @pthread_cond_broadcast(ptr noundef @update_srun_cond) #10
  store i32 %57, ptr %7, align 4
  %58 = load i32, ptr %7, align 4
  %59 = icmp ne i32 %58, 0
  br i1 %59, label %60, label %64

60:                                               ; preds = %56
  %61 = load i32, ptr %7, align 4
  %62 = call ptr @__errno_location() #11
  store i32 %61, ptr %62, align 4
  %63 = call i32 (ptr, ...) @error(ptr noundef @.str.19, ptr noundef @.str.6, i32 noundef 1632, ptr noundef @__func__.agent_fini)
  br label %64

64:                                               ; preds = %60, %56
  call void @llvm.lifetime.end.p0(i64 4, ptr %7) #10
  br label %65

65:                                               ; preds = %64
  br label %66

66:                                               ; preds = %65
  br label %67

67:                                               ; preds = %66
  call void @llvm.lifetime.start.p0(i64 4, ptr %8) #10
  %68 = call i32 @pthread_mutex_unlock(ptr noundef @update_srun_mutex) #10
  store i32 %68, ptr %8, align 4
  %69 = load i32, ptr %8, align 4
  %70 = icmp ne i32 %69, 0
  br i1 %70, label %71, label %74

71:                                               ; preds = %67
  %72 = load i32, ptr %8, align 4
  %73 = call ptr @__errno_location() #11
  store i32 %72, ptr %73, align 4
  call void (ptr, ...) @fatal_abort(ptr noundef @.str.7, ptr noundef @__func__.agent_fini) #12
  unreachable

74:                                               ; preds = %67
  call void @llvm.lifetime.end.p0(i64 4, ptr %8) #10
  br label %75

75:                                               ; preds = %74
  br label %76

76:                                               ; preds = %75
  br label %77

77:                                               ; preds = %76
  call void @llvm.lifetime.start.p0(i64 4, ptr %9) #10
  store i32 0, ptr %9, align 4
  %78 = load i64, ptr @pending_thread_tid, align 8
  %79 = icmp ne i64 %78, 0
  br i1 %79, label %80, label %83

80:                                               ; preds = %77
  %81 = load i64, ptr @pending_thread_tid, align 8
  %82 = call i32 @pthread_join(i64 noundef %81, ptr noundef null)
  store i32 %82, ptr %9, align 4
  store i64 0, ptr @pending_thread_tid, align 8
  br label %83

83:                                               ; preds = %80, %77
  %84 = load i32, ptr %9, align 4
  %85 = icmp ne i32 %84, 0
  br i1 %85, label %86, label %90

86:                                               ; preds = %83
  %87 = load i32, ptr %9, align 4
  %88 = call ptr @__errno_location() #11
  store i32 %87, ptr %88, align 4
  %89 = call i32 (ptr, ...) @error(ptr noundef @.str.14, ptr noundef @__func__.agent_fini)
  br label %90

90:                                               ; preds = %86, %83
  call void @llvm.lifetime.end.p0(i64 4, ptr %9) #10
  br label %91

91:                                               ; preds = %90
  br label %92

92:                                               ; preds = %91
  br label %93

93:                                               ; preds = %92
  call void @llvm.lifetime.start.p0(i64 4, ptr %10) #10
  store i32 0, ptr %10, align 4
  %94 = load i64, ptr @nodes_update_tid, align 8
  %95 = icmp ne i64 %94, 0
  br i1 %95, label %96, label %99

96:                                               ; preds = %93
  %97 = load i64, ptr @nodes_update_tid, align 8
  %98 = call i32 @pthread_join(i64 noundef %97, ptr noundef null)
  store i32 %98, ptr %10, align 4
  store i64 0, ptr @nodes_update_tid, align 8
  br label %99

99:                                               ; preds = %96, %93
  %100 = load i32, ptr %10, align 4
  %101 = icmp ne i32 %100, 0
  br i1 %101, label %102, label %106

102:                                              ; preds = %99
  %103 = load i32, ptr %10, align 4
  %104 = call ptr @__errno_location() #11
  store i32 %103, ptr %104, align 4
  %105 = call i32 (ptr, ...) @error(ptr noundef @.str.14, ptr noundef @__func__.agent_fini)
  br label %106

106:                                              ; preds = %102, %99
  call void @llvm.lifetime.end.p0(i64 4, ptr %10) #10
  br label %107

107:                                              ; preds = %106
  br label %108

108:                                              ; preds = %107
  br label %109

109:                                              ; preds = %108
  call void @llvm.lifetime.start.p0(i64 4, ptr %11) #10
  store i32 0, ptr %11, align 4
  %110 = load i64, ptr @srun_update_tid, align 8
  %111 = icmp ne i64 %110, 0
  br i1 %111, label %112, label %115

112:                                              ; preds = %109
  %113 = load i64, ptr @srun_update_tid, align 8
  %114 = call i32 @pthread_join(i64 noundef %113, ptr noundef null)
  store i32 %114, ptr %11, align 4
  store i64 0, ptr @srun_update_tid, align 8
  br label %115

115:                                              ; preds = %112, %109
  %116 = load i32, ptr %11, align 4
  %117 = icmp ne i32 %116, 0
  br i1 %117, label %118, label %122

118:                                              ; preds = %115
  %119 = load i32, ptr %11, align 4
  %120 = call ptr @__errno_location() #11
  store i32 %119, ptr %120, align 4
  %121 = call i32 (ptr, ...) @error(ptr noundef @.str.14, ptr noundef @__func__.agent_fini)
  br label %122

122:                                              ; preds = %118, %115
  call void @llvm.lifetime.end.p0(i64 4, ptr %11) #10
  br label %123

123:                                              ; preds = %122
  br label %124

124:                                              ; preds = %123
  %125 = call i64 @time(ptr noundef null) #10
  %126 = add nsw i64 %125, 3
  %127 = getelementptr inbounds nuw %struct.timespec, ptr %1, i32 0, i32 0
  store i64 %126, ptr %127, align 8
  br label %128

128:                                              ; preds = %124
  call void @llvm.lifetime.start.p0(i64 4, ptr %12) #10
  %129 = call i32 @pthread_mutex_lock(ptr noundef @agent_cnt_mutex) #10
  store i32 %129, ptr %12, align 4
  %130 = load i32, ptr %12, align 4
  %131 = icmp ne i32 %130, 0
  br i1 %131, label %132, label %135

132:                                              ; preds = %128
  %133 = load i32, ptr %12, align 4
  %134 = call ptr @__errno_location() #11
  store i32 %133, ptr %134, align 4
  call void (ptr, ...) @fatal_abort(ptr noundef @.str.3, ptr noundef @__func__.agent_fini) #12
  unreachable

135:                                              ; preds = %128
  call void @llvm.lifetime.end.p0(i64 4, ptr %12) #10
  br label %136

136:                                              ; preds = %135
  br label %137

137:                                              ; preds = %136
  br label %138

138:                                              ; preds = %137
  call void @llvm.lifetime.start.p0(i64 4, ptr %13) #10
  %139 = call i32 @pthread_cond_broadcast(ptr noundef @agent_cnt_cond) #10
  store i32 %139, ptr %13, align 4
  %140 = load i32, ptr %13, align 4
  %141 = icmp ne i32 %140, 0
  br i1 %141, label %142, label %146

142:                                              ; preds = %138
  %143 = load i32, ptr %13, align 4
  %144 = call ptr @__errno_location() #11
  store i32 %143, ptr %144, align 4
  %145 = call i32 (ptr, ...) @error(ptr noundef @.str.19, ptr noundef @.str.6, i32 noundef 1642, ptr noundef @__func__.agent_fini)
  br label %146

146:                                              ; preds = %142, %138
  call void @llvm.lifetime.end.p0(i64 4, ptr %13) #10
  br label %147

147:                                              ; preds = %146
  br label %148

148:                                              ; preds = %147
  br label %149

149:                                              ; preds = %159, %148
  %150 = load i32, ptr @agent_thread_cnt, align 4
  %151 = icmp ne i32 %150, 0
  br i1 %151, label %152, label %160

152:                                              ; preds = %149
  %153 = call i32 @pthread_cond_timedwait(ptr noundef @agent_cnt_cond, ptr noundef @agent_cnt_mutex, ptr noundef %1)
  store i32 %153, ptr %2, align 4
  %154 = load i32, ptr %2, align 4
  %155 = icmp eq i32 %154, 110
  br i1 %155, label %156, label %159

156:                                              ; preds = %152
  %157 = load i32, ptr @agent_thread_cnt, align 4
  %158 = call i32 (ptr, ...) @error(ptr noundef @.str.21, ptr noundef @__func__.agent_fini, i32 noundef %157)
  br label %160

159:                                              ; preds = %152
  br label %149, !llvm.loop !27

160:                                              ; preds = %156, %149
  br label %161

161:                                              ; preds = %160
  call void @llvm.lifetime.start.p0(i64 4, ptr %14) #10
  %162 = call i32 @pthread_mutex_unlock(ptr noundef @agent_cnt_mutex) #10
  store i32 %162, ptr %14, align 4
  %163 = load i32, ptr %14, align 4
  %164 = icmp ne i32 %163, 0
  br i1 %164, label %165, label %168

165:                                              ; preds = %161
  %166 = load i32, ptr %14, align 4
  %167 = call ptr @__errno_location() #11
  store i32 %166, ptr %167, align 4
  call void (ptr, ...) @fatal_abort(ptr noundef @.str.7, ptr noundef @__func__.agent_fini) #12
  unreachable

168:                                              ; preds = %161
  call void @llvm.lifetime.end.p0(i64 4, ptr %14) #10
  br label %169

169:                                              ; preds = %168
  br label %170

170:                                              ; preds = %169
  br label %171

171:                                              ; preds = %170
  %172 = load ptr, ptr @update_srun_list, align 8
  %173 = icmp ne ptr %172, null
  br i1 %173, label %174, label %176

174:                                              ; preds = %171
  %175 = load ptr, ptr @update_srun_list, align 8
  call void @list_destroy(ptr noundef %175)
  br label %176

176:                                              ; preds = %174, %171
  store ptr null, ptr @update_srun_list, align 8
  br label %177

177:                                              ; preds = %176
  br label %178

178:                                              ; preds = %177
  call void @llvm.lifetime.end.p0(i64 4, ptr %2) #10
  call void @llvm.lifetime.end.p0(i64 16, ptr %1) #10
  ret void
}