; Function Attrs: nounwind uwtable
define dso_local void @agent_fini() local_unnamed_addr #0 {
  %1 = alloca %struct.timespec, align 8
  call void @llvm.lifetime.start.p0(i64 16, ptr nonnull %1) #14
  call void @llvm.memset.p0.i64(ptr noundef nonnull align 8 dereferenceable(16) %1, i8 0, i64 16, i1 false)
  tail call void @agent_trigger(i32 noundef 999, i1 noundef zeroext true, i1 noundef zeroext true)
  %2 = tail call i32 @pthread_mutex_lock(ptr noundef nonnull @update_nodes_mutex) #14
  %.not = icmp eq i32 %2, 0
  br i1 %.not, label %5, label %3

3:                                                ; preds = %0
  %4 = tail call ptr @__errno_location() #15
  store i32 %2, ptr %4, align 4
  tail call void (ptr, ...) @fatal_abort(ptr noundef nonnull @.str.3, ptr noundef nonnull @__func__.agent_fini) #16
  unreachable

5:                                                ; preds = %0
  %6 = tail call i32 @pthread_cond_broadcast(ptr noundef nonnull @update_nodes_cond) #14
  %.not40 = icmp eq i32 %6, 0
  br i1 %.not40, label %10, label %7

7:                                                ; preds = %5
  %8 = tail call ptr @__errno_location() #15
  store i32 %6, ptr %8, align 4
  %9 = tail call i32 (ptr, ...) @error(ptr noundef nonnull @.str.19, ptr noundef nonnull @.str.6, i32 noundef 1628, ptr noundef nonnull @__func__.agent_fini) #14
  br label %10

10:                                               ; preds = %7, %5
  %11 = tail call i32 @pthread_mutex_unlock(ptr noundef nonnull @update_nodes_mutex) #14
  %.not41 = icmp eq i32 %11, 0
  br i1 %.not41, label %14, label %12

12:                                               ; preds = %10
  %13 = tail call ptr @__errno_location() #15
  store i32 %11, ptr %13, align 4
  tail call void (ptr, ...) @fatal_abort(ptr noundef nonnull @.str.7, ptr noundef nonnull @__func__.agent_fini) #16
  unreachable

14:                                               ; preds = %10
  %15 = tail call i32 @pthread_mutex_lock(ptr noundef nonnull @update_srun_mutex) #14
  %.not42 = icmp eq i32 %15, 0
  br i1 %.not42, label %18, label %16

16:                                               ; preds = %14
  %17 = tail call ptr @__errno_location() #15
  store i32 %15, ptr %17, align 4
  tail call void (ptr, ...) @fatal_abort(ptr noundef nonnull @.str.3, ptr noundef nonnull @__func__.agent_fini) #16
  unreachable

18:                                               ; preds = %14
  %19 = tail call i32 @pthread_cond_broadcast(ptr noundef nonnull @update_srun_cond) #14
  %.not43 = icmp eq i32 %19, 0
  br i1 %.not43, label %23, label %20

20:                                               ; preds = %18
  %21 = tail call ptr @__errno_location() #15
  store i32 %19, ptr %21, align 4
  %22 = tail call i32 (ptr, ...) @error(ptr noundef nonnull @.str.19, ptr noundef nonnull @.str.6, i32 noundef 1632, ptr noundef nonnull @__func__.agent_fini) #14
  br label %23

23:                                               ; preds = %20, %18
  %24 = tail call i32 @pthread_mutex_unlock(ptr noundef nonnull @update_srun_mutex) #14
  %.not44 = icmp eq i32 %24, 0
  br i1 %.not44, label %27, label %25

25:                                               ; preds = %23
  %26 = tail call ptr @__errno_location() #15
  store i32 %24, ptr %26, align 4
  tail call void (ptr, ...) @fatal_abort(ptr noundef nonnull @.str.7, ptr noundef nonnull @__func__.agent_fini) #16
  unreachable

27:                                               ; preds = %23
  %28 = load i64, ptr @pending_thread_tid, align 8
  %.not45 = icmp eq i64 %28, 0
  br i1 %.not45, label %.thread, label %29

29:                                               ; preds = %27
  %30 = tail call i32 @pthread_join(i64 noundef %28, ptr noundef null) #14
  store i64 0, ptr @pending_thread_tid, align 8
  %.not46 = icmp eq i32 %30, 0
  br i1 %.not46, label %.thread, label %31

31:                                               ; preds = %29
  %32 = tail call ptr @__errno_location() #15
  store i32 %30, ptr %32, align 4
  %33 = tail call i32 (ptr, ...) @error(ptr noundef nonnull @.str.14, ptr noundef nonnull @__func__.agent_fini) #14
  br label %.thread

.thread:                                          ; preds = %27, %31, %29
  %34 = load i64, ptr @nodes_update_tid, align 8
  %.not47 = icmp eq i64 %34, 0
  br i1 %.not47, label %.thread58, label %35

35:                                               ; preds = %.thread
  %36 = tail call i32 @pthread_join(i64 noundef %34, ptr noundef null) #14
  store i64 0, ptr @nodes_update_tid, align 8
  %.not48 = icmp eq i32 %36, 0
  br i1 %.not48, label %.thread58, label %37

37:                                               ; preds = %35
  %38 = tail call ptr @__errno_location() #15
  store i32 %36, ptr %38, align 4
  %39 = tail call i32 (ptr, ...) @error(ptr noundef nonnull @.str.14, ptr noundef nonnull @__func__.agent_fini) #14
  br label %.thread58

.thread58:                                        ; preds = %.thread, %37, %35
  %40 = load i64, ptr @srun_update_tid, align 8
  %.not49 = icmp eq i64 %40, 0
  br i1 %.not49, label %.thread61, label %41

41:                                               ; preds = %.thread58
  %42 = tail call i32 @pthread_join(i64 noundef %40, ptr noundef null) #14
  store i64 0, ptr @srun_update_tid, align 8
  %.not50 = icmp eq i32 %42, 0
  br i1 %.not50, label %.thread61, label %43

43:                                               ; preds = %41
  %44 = tail call ptr @__errno_location() #15
  store i32 %42, ptr %44, align 4
  %45 = tail call i32 (ptr, ...) @error(ptr noundef nonnull @.str.14, ptr noundef nonnull @__func__.agent_fini) #14
  br label %.thread61

.thread61:                                        ; preds = %.thread58, %43, %41
  %46 = tail call i64 @time(ptr noundef null) #14
  %47 = add nsw i64 %46, 3
  store i64 %47, ptr %1, align 8
  %48 = tail call i32 @pthread_mutex_lock(ptr noundef nonnull @agent_cnt_mutex) #14
  %.not51 = icmp eq i32 %48, 0
  br i1 %.not51, label %51, label %49

49:                                               ; preds = %.thread61
  %50 = tail call ptr @__errno_location() #15
  store i32 %48, ptr %50, align 4
  tail call void (ptr, ...) @fatal_abort(ptr noundef nonnull @.str.3, ptr noundef nonnull @__func__.agent_fini) #16
  unreachable

51:                                               ; preds = %.thread61
  %52 = tail call i32 @pthread_cond_broadcast(ptr noundef nonnull @agent_cnt_cond) #14
  %.not52 = icmp eq i32 %52, 0
  br i1 %.not52, label %.preheader, label %53

53:                                               ; preds = %51
  %54 = tail call ptr @__errno_location() #15
  store i32 %52, ptr %54, align 4
  %55 = tail call i32 (ptr, ...) @error(ptr noundef nonnull @.str.19, ptr noundef nonnull @.str.6, i32 noundef 1642, ptr noundef nonnull @__func__.agent_fini) #14
  br label %.preheader

.preheader:                                       ; preds = %53, %51
  br label %56

56:                                               ; preds = %.preheader, %58
  %57 = load i32, ptr @agent_thread_cnt, align 4
  %.not53 = icmp eq i32 %57, 0
  br i1 %.not53, label %.loopexit, label %58

58:                                               ; preds = %56
  %59 = call i32 @pthread_cond_timedwait(ptr noundef nonnull @agent_cnt_cond, ptr noundef nonnull @agent_cnt_mutex, ptr noundef nonnull %1) #14
  %60 = icmp eq i32 %59, 110
  br i1 %60, label %61, label %56, !llvm.loop !34

61:                                               ; preds = %58
  %62 = load i32, ptr @agent_thread_cnt, align 4
  %63 = call i32 (ptr, ...) @error(ptr noundef nonnull @.str.21, ptr noundef nonnull @__func__.agent_fini, i32 noundef %62) #14
  br label %.loopexit

.loopexit:                                        ; preds = %56, %61
  %64 = call i32 @pthread_mutex_unlock(ptr noundef nonnull @agent_cnt_mutex) #14
  %.not54 = icmp eq i32 %64, 0
  br i1 %.not54, label %67, label %65

65:                                               ; preds = %.loopexit
  %66 = tail call ptr @__errno_location() #15
  store i32 %64, ptr %66, align 4
  call void (ptr, ...) @fatal_abort(ptr noundef nonnull @.str.7, ptr noundef nonnull @__func__.agent_fini) #16
  unreachable

67:                                               ; preds = %.loopexit
  %68 = load ptr, ptr @update_srun_list, align 8
  %.not55 = icmp eq ptr %68, null
  br i1 %.not55, label %70, label %69

69:                                               ; preds = %67
  call void @list_destroy(ptr noundef nonnull %68) #14
  br label %70

70:                                               ; preds = %69, %67
  store ptr null, ptr @update_srun_list, align 8
  call void @llvm.lifetime.end.p0(i64 16, ptr nonnull %1) #14
  ret void
}